(lp0
Vhttps://www.douban.com/group/topic/109978134/
p1
aVhttps://www.douban.com/group/topic/109981278/
p2
aVhttps://www.douban.com/group/topic/109937311/
p3
aVhttps://www.douban.com/group/topic/109981311/
p4
aVhttps://www.douban.com/group/topic/103755602/
p5
aVhttps://www.douban.com/group/topic/109542875/
p6
aVhttps://www.douban.com/group/topic/109970562/
p7
aVhttps://www.douban.com/group/topic/109948171/
p8
aVhttps://www.douban.com/group/topic/109979939/
p9
aVhttps://www.douban.com/group/topic/109963816/
p10
aVhttps://www.douban.com/group/topic/109967676/
p11
aVhttps://www.douban.com/group/topic/109974150/
p12
aVhttps://www.douban.com/group/topic/109979285/
p13
aVhttps://www.douban.com/group/topic/109234564/
p14
aVhttps://www.douban.com/group/topic/109047858/
p15
aVhttps://www.douban.com/group/topic/109968025/
p16
aVhttps://www.douban.com/group/topic/109981347/
p17
aVhttps://www.douban.com/group/topic/109980813/
p18
aVhttps://www.douban.com/group/topic/102420515/
p19
aVhttps://www.douban.com/group/topic/109910394/
p20
aVhttps://www.douban.com/group/topic/109946922/
p21
aVhttps://www.douban.com/group/topic/109981337/
p22
aVhttps://www.douban.com/group/topic/109958209/
p23
aVhttps://www.douban.com/group/topic/92433584/
p24
aVhttps://www.douban.com/group/topic/109946894/
p25
a.